; Function Attrs: nounwind uwtable
define noalias noundef nonnull ptr @l___private_Lean_Meta_Tactic_Grind_Cases_0__Lean_Meta_Grind_getAlias_x3f___lambda__1(ptr readnone captures(none) %0, ptr noundef %1, ptr readnone captures(none) %2, ptr readnone captures(none) %3, ptr readnone captures(none) %4, ptr readnone captures(none) %5, ptr noundef %6) local_unnamed_addr #1 {
  %8 = tail call ptr @l_Lean_Expr_getAppFn_x27(ptr noundef %1) #6
  %9 = ptrtoint ptr %8 to i64
  %10 = and i64 %9, 1
  %.not.i22 = icmp eq i64 %10, 0
  br i1 %.not.i22, label %lean_obj_tag.exit.thread, label %lean_obj_tag.exit

lean_obj_tag.exit:                                ; preds = %7
  %11 = and i64 %9, 8589934590
  %12 = icmp eq i64 %11, 8
  br i1 %12, label %15, label %lean_dec.exit

lean_obj_tag.exit.thread:                         ; preds = %7
  %13 = getelementptr i8, ptr %8, i64 4
  %.val.i = load i32, ptr %13, align 4
  %.mask = and i32 %.val.i, -16777216
  %14 = icmp eq i32 %.mask, 67108864
  br i1 %14, label %15, label %.thread

15:                                               ; preds = %lean_obj_tag.exit.thread, %lean_obj_tag.exit
  %16 = getelementptr inbounds nuw i8, ptr %8, i64 8
  %17 = load ptr, ptr %16, align 8, !tbaa !9
  %18 = ptrtoint ptr %17 to i64
  %19 = and i64 %18, 1
  %.not = icmp eq i64 %19, 0
  br i1 %.not, label %20, label %lean_inc.exit

20:                                               ; preds = %15
  %.val.i23 = load i32, ptr %17, align 4, !tbaa !4
  %21 = icmp sgt i32 %.val.i23, 0
  br i1 %21, label %22, label %24, !prof !11

22:                                               ; preds = %20
  %23 = add nuw i32 %.val.i23, 1
  store i32 %23, ptr %17, align 4, !tbaa !4
  br label %lean_inc.exit

24:                                               ; preds = %20
  %.not.i24 = icmp eq i32 %.val.i23, 0
  br i1 %.not.i24, label %lean_inc.exit, label %25

25:                                               ; preds = %24
  tail call void @lean_inc_ref_cold(ptr noundef nonnull %17) #6
  br label %lean_inc.exit

lean_inc.exit:                                    ; preds = %25, %24, %22, %15
  br i1 %.not.i22, label %26, label %lean_dec.exit19

26:                                               ; preds = %lean_inc.exit
  %27 = load i32, ptr %8, align 4, !tbaa !4
  %28 = icmp sgt i32 %27, 1
  br i1 %28, label %29, label %31, !prof !11

29:                                               ; preds = %26
  %30 = add nsw i32 %27, -1
  store i32 %30, ptr %8, align 4, !tbaa !4
  br label %lean_dec.exit19

31:                                               ; preds = %26
  %.not.i = icmp eq i32 %27, 0
  br i1 %.not.i, label %lean_dec.exit19, label %32

32:                                               ; preds = %31
  tail call void @lean_dec_ref_cold(ptr noundef nonnull %8) #6
  br label %lean_dec.exit19

lean_dec.exit19:                                  ; preds = %32, %31, %29, %lean_inc.exit
  tail call void @lean_inc_heartbeat() #6
  %33 = tail call noalias ptr @mi_malloc_small(i64 noundef 16) #6
  %34 = icmp eq ptr %33, null
  br i1 %34, label %35, label %lean_alloc_ctor.exit

35:                                               ; preds = %lean_dec.exit19
  tail call void @lean_internal_panic_out_of_memory() #7
  unreachable

lean_alloc_ctor.exit:                             ; preds = %lean_dec.exit19
  %36 = getelementptr inbounds nuw i8, ptr %33, i64 4
  store i32 1, ptr %33, align 4, !tbaa !4
  store i32 16842768, ptr %36, align 4
  %37 = getelementptr inbounds nuw i8, ptr %33, i64 8
  store ptr %17, ptr %37, align 8, !tbaa !9
  tail call void @lean_inc_heartbeat() #6
  %38 = tail call noalias ptr @mi_malloc_small(i64 noundef 24) #6
  %39 = icmp eq ptr %38, null
  br i1 %39, label %40, label %lean_alloc_ctor.exit25

40:                                               ; preds = %lean_alloc_ctor.exit
  tail call void @lean_internal_panic_out_of_memory() #7
  unreachable

.thread:                                          ; preds = %lean_obj_tag.exit.thread
  %41 = load i32, ptr %8, align 4, !tbaa !4
  %42 = icmp sgt i32 %41, 1
  br i1 %42, label %43, label %45, !prof !11

43:                                               ; preds = %.thread
  %44 = add nsw i32 %41, -1
  store i32 %44, ptr %8, align 4, !tbaa !4
  br label %lean_dec.exit

45:                                               ; preds = %.thread
  %.not.i20 = icmp eq i32 %41, 0
  br i1 %.not.i20, label %lean_dec.exit, label %46

46:                                               ; preds = %45
  tail call void @lean_dec_ref_cold(ptr noundef nonnull %8) #6
  br label %lean_dec.exit

lean_dec.exit:                                    ; preds = %lean_obj_tag.exit, %46, %45, %43
  tail call void @lean_inc_heartbeat() #6
  %47 = tail call noalias ptr @mi_malloc_small(i64 noundef 24) #6
  %48 = icmp eq ptr %47, null
  br i1 %48, label %49, label %lean_alloc_ctor.exit25

49:                                               ; preds = %lean_dec.exit
  tail call void @lean_internal_panic_out_of_memory() #7
  unreachable

lean_alloc_ctor.exit25:                           ; preds = %lean_dec.exit, %lean_alloc_ctor.exit
  %.sink34 = phi ptr [ %38, %lean_alloc_ctor.exit ], [ %47, %lean_dec.exit ]
  %.sink = phi ptr [ %33, %lean_alloc_ctor.exit ], [ inttoptr (i64 1 to ptr), %lean_dec.exit ]
  %50 = getelementptr inbounds nuw i8, ptr %.sink34, i64 4
  store i32 1, ptr %.sink34, align 4, !tbaa !4
  store i32 131096, ptr %50, align 4
  %51 = getelementptr inbounds nuw i8, ptr %.sink34, i64 8
  store ptr %.sink, ptr %51, align 8, !tbaa !9
  %52 = getelementptr inbounds nuw i8, ptr %.sink34, i64 16
  store ptr %6, ptr %52, align 8, !tbaa !9
  ret ptr %.sink34
}